; ModuleID = 'source-C-CXX/51/1373.c'
source_filename = "source-C-CXX/51/1373.c"
target datalayout = "e-m:e-p270:32:32-p271:32:32-p272:64:64-i64:64-f80:128-n8:16:32:64-S128"
target triple = "x86_64-pc-linux-gnu"

@.str = private unnamed_addr constant [6 x i8] c"%d %d\00", align 1
@.str.1 = private unnamed_addr constant [3 x i8] c"%d\00", align 1
@.str.2 = private unnamed_addr constant [4 x i8] c" %d\00", align 1

; Function Attrs: nofree nounwind sspstrong uwtable
define dso_local void @main() local_unnamed_addr #0 {
  %1 = alloca i32, align 4
  %2 = alloca i32, align 4
  %3 = alloca [100 x i32], align 16
  %4 = bitcast i32* %1 to i8*
  call void @llvm.lifetime.start.p0i8(i64 4, i8* nonnull %4) #4
  %5 = bitcast i32* %2 to i8*
  call void @llvm.lifetime.start.p0i8(i64 4, i8* nonnull %5) #4
  %6 = bitcast [100 x i32]* %3 to i8*
  call void @llvm.lifetime.start.p0i8(i64 400, i8* nonnull %6) #4
  %7 = call i32 (i8*, ...) @__isoc99_scanf(i8* getelementptr inbounds ([6 x i8], [6 x i8]* @.str, i64 0, i64 0), i32* nonnull %1, i32* nonnull %2)
  %8 = getelementptr inbounds [100 x i32], [100 x i32]* %3, i64 0, i64 0
  %9 = call i32 (i8*, ...) @__isoc99_scanf(i8* getelementptr inbounds ([3 x i8], [3 x i8]* @.str.1, i64 0, i64 0), i32* nonnull %8)
  %10 = load i32, i32* %1, align 4, !tbaa !5
  %11 = icmp sgt i32 %10, 1
  br i1 %11, label %12, label %20

12:                                               ; preds = %0, %12
  %13 = phi i64 [ %16, %12 ], [ 1, %0 ]
  %14 = getelementptr inbounds [100 x i32], [100 x i32]* %3, i64 0, i64 %13
  %15 = call i32 (i8*, ...) @__isoc99_scanf(i8* getelementptr inbounds ([4 x i8], [4 x i8]* @.str.2, i64 0, i64 0), i32* nonnull %14)
  %16 = add nuw nsw i64 %13, 1
  %17 = load i32, i32* %1, align 4, !tbaa !5
  %18 = sext i32 %17 to i64
  %19 = icmp slt i64 %16, %18
  br i1 %19, label %12, label %20, !llvm.loop !9

20:                                               ; preds = %12, %0
  %21 = phi i32 [ %10, %0 ], [ %17, %12 ]
  %22 = load i32, i32* %2, align 4, !tbaa !5
  %23 = icmp eq i32 %22, 1
  br i1 %23, label %24, label %42

24:                                               ; preds = %20
  %25 = add nsw i32 %21, -1
  %26 = sext i32 %25 to i64
  %27 = getelementptr inbounds [100 x i32], [100 x i32]* %3, i64 0, i64 %26
  %28 = load i32, i32* %27, align 4, !tbaa !5
  %29 = call i32 (i8*, ...) @printf(i8* nonnull dereferenceable(1) getelementptr inbounds ([3 x i8], [3 x i8]* @.str.1, i64 0, i64 0), i32 %28)
  %30 = load i32, i32* %1, align 4, !tbaa !5
  %31 = icmp slt i32 %30, 2
  br i1 %31, label %101, label %32

32:                                               ; preds = %24, %32
  %33 = phi i64 [ %37, %32 ], [ 0, %24 ]
  %34 = getelementptr inbounds [100 x i32], [100 x i32]* %3, i64 0, i64 %33
  %35 = load i32, i32* %34, align 4, !tbaa !5
  %36 = call i32 (i8*, ...) @printf(i8* nonnull dereferenceable(1) getelementptr inbounds ([4 x i8], [4 x i8]* @.str.2, i64 0, i64 0), i32 %35)
  %37 = add nuw nsw i64 %33, 1
  %38 = load i32, i32* %1, align 4, !tbaa !5
  %39 = add nsw i32 %38, -2
  %40 = sext i32 %39 to i64
  %41 = icmp slt i64 %33, %40
  br i1 %41, label %32, label %101, !llvm.loop !11

42:                                               ; preds = %20
  %43 = icmp eq i32 %21, %22
  br i1 %43, label %44, label %58

44:                                               ; preds = %42
  %45 = load i32, i32* %8, align 16, !tbaa !5
  %46 = call i32 (i8*, ...) @printf(i8* nonnull dereferenceable(1) getelementptr inbounds ([3 x i8], [3 x i8]* @.str.1, i64 0, i64 0), i32 %45)
  %47 = load i32, i32* %1, align 4, !tbaa !5
  %48 = icmp sgt i32 %47, 1
  br i1 %48, label %49, label %101

49:                                               ; preds = %44, %49
  %50 = phi i64 [ %54, %49 ], [ 1, %44 ]
  %51 = getelementptr inbounds [100 x i32], [100 x i32]* %3, i64 0, i64 %50
  %52 = load i32, i32* %51, align 4, !tbaa !5
  %53 = call i32 (i8*, ...) @printf(i8* nonnull dereferenceable(1) getelementptr inbounds ([4 x i8], [4 x i8]* @.str.2, i64 0, i64 0), i32 %52)
  %54 = add nuw nsw i64 %50, 1
  %55 = load i32, i32* %1, align 4, !tbaa !5
  %56 = sext i32 %55 to i64
  %57 = icmp slt i64 %54, %56
  br i1 %57, label %49, label %101, !llvm.loop !12

58:                                               ; preds = %42
  %59 = sub nsw i32 %21, %22
  %60 = sext i32 %59 to i64
  %61 = getelementptr inbounds [100 x i32], [100 x i32]* %3, i64 0, i64 %60
  %62 = load i32, i32* %61, align 4, !tbaa !5
  %63 = call i32 (i8*, ...) @printf(i8* nonnull dereferenceable(1) getelementptr inbounds ([3 x i8], [3 x i8]* @.str.1, i64 0, i64 0), i32 %62)
  %64 = load i32, i32* %1, align 4, !tbaa !5
  %65 = load i32, i32* %2, align 4, !tbaa !5
  %66 = sub i32 %64, %65
  %67 = add nsw i32 %64, -1
  %68 = icmp slt i32 %66, %67
  br i1 %68, label %69, label %73

69:                                               ; preds = %58
  %70 = sext i32 %66 to i64
  br label %79

71:                                               ; preds = %79
  %72 = load i32, i32* %2, align 4, !tbaa !5
  br label %73

73:                                               ; preds = %71, %58
  %74 = phi i32 [ %72, %71 ], [ %65, %58 ]
  %75 = phi i32 [ %85, %71 ], [ %64, %58 ]
  %76 = xor i32 %74, -1
  %77 = add i32 %75, %76
  %78 = icmp slt i32 %77, 0
  br i1 %78, label %103, label %89

79:                                               ; preds = %69, %79
  %80 = phi i64 [ %70, %69 ], [ %81, %79 ]
  %81 = add nsw i64 %80, 1
  %82 = getelementptr inbounds [100 x i32], [100 x i32]* %3, i64 0, i64 %81
  %83 = load i32, i32* %82, align 4, !tbaa !5
  %84 = call i32 (i8*, ...) @printf(i8* nonnull dereferenceable(1) getelementptr inbounds ([4 x i8], [4 x i8]* @.str.2, i64 0, i64 0), i32 %83)
  %85 = load i32, i32* %1, align 4, !tbaa !5
  %86 = add nsw i32 %85, -1
  %87 = sext i32 %86 to i64
  %88 = icmp slt i64 %81, %87
  br i1 %88, label %79, label %71, !llvm.loop !13

89:                                               ; preds = %73, %89
  %90 = phi i64 [ %94, %89 ], [ 0, %73 ]
  %91 = getelementptr inbounds [100 x i32], [100 x i32]* %3, i64 0, i64 %90
  %92 = load i32, i32* %91, align 4, !tbaa !5
  %93 = call i32 (i8*, ...) @printf(i8* nonnull dereferenceable(1) getelementptr inbounds ([4 x i8], [4 x i8]* @.str.2, i64 0, i64 0), i32 %92)
  %94 = add nuw nsw i64 %90, 1
  %95 = load i32, i32* %1, align 4, !tbaa !5
  %96 = load i32, i32* %2, align 4, !tbaa !5
  %97 = xor i32 %96, -1
  %98 = add i32 %95, %97
  %99 = sext i32 %98 to i64
  %100 = icmp slt i64 %90, %99
  br i1 %100, label %89, label %103, !llvm.loop !14

101:                                              ; preds = %49, %32, %44, %24
  %102 = call i32 @putchar(i32 10)
  br label %103

103:                                              ; preds = %89, %101, %73
  %104 = call i32 @putchar(i32 10)
  call void @llvm.lifetime.end.p0i8(i64 400, i8* nonnull %6) #4
  call void @llvm.lifetime.end.p0i8(i64 4, i8* nonnull %5) #4
  call void @llvm.lifetime.end.p0i8(i64 4, i8* nonnull %4) #4
  ret void
}

; Function Attrs: argmemonly mustprogress nofree nosync nounwind willreturn
declare void @llvm.lifetime.start.p0i8(i64 immarg, i8* nocapture) #1

; Function Attrs: nofree nounwind
declare noundef i32 @__isoc99_scanf(i8* nocapture noundef readonly, ...) local_unnamed_addr #2

; Function Attrs: nofree nounwind
declare noundef i32 @printf(i8* nocapture noundef readonly, ...) local_unnamed_addr #2

; Function Attrs: argmemonly mustprogress nofree nosync nounwind willreturn
declare void @llvm.lifetime.end.p0i8(i64 immarg, i8* nocapture) #1

; Function Attrs: nofree nounwind
declare noundef i32 @putchar(i32 noundef) local_unnamed_addr #3


!llvm.module.flags = !{!0, !1, !2, !3}
!llvm.ident = !{!4}

!0 = !{i32 1, !"wchar_size", i32 4}
!1 = !{i32 7, !"PIC Level", i32 2}
!2 = !{i32 7, !"PIE Level", i32 2}
!3 = !{i32 7, !"uwtable", i32 1}
!4 = !{!"clang version 13.0.0"}
!5 = !{!6, !6, i64 0}
!6 = !{!"int", !7, i64 0}
!7 = !{!"omnipotent char", !8, i64 0}
!8 = !{!"Simple C/C++ TBAA"}
!9 = distinct !{!9, !10}
!10 = !{!"llvm.loop.mustprogress"}
!11 = distinct !{!11, !10}
!12 = distinct !{!12, !10}
!13 = distinct !{!13, !10}
!14 = distinct !{!14, !10}
